target datalayout = "e-m:e-p270:32:32-p271:32:32-p272:64:64-i64:64-i128:128-f80:128-n8:16:32:64-S128"
target triple = "x86_64-pc-linux-gnu"

%"class.std::__cxx11::basic_string" = type { %"struct.std::__cxx11::basic_string<char>::_Alloc_hider", i64, %union.anon }
%"struct.std::__cxx11::basic_string<char>::_Alloc_hider" = type { ptr }
%union.anon = type { i64, [8 x i8] }
%"class.__gnu_cxx::__normal_iterator" = type { ptr }
%class.cmCTestBuildHandler = type { %class.cmCTestGenericHandler.base, %"class.std::__cxx11::basic_string", %"class.std::__cxx11::basic_string", %"class.std::chrono::time_point", %"class.std::chrono::time_point", %"class.std::vector", %"class.std::vector", %"class.std::vector", %"class.std::vector", %"class.std::vector", %"class.std::vector", %"class.std::vector.11", %"class.std::vector.16", %"class.std::vector.16", %"class.std::vector.16", %"class.std::vector.16", %"class.std::deque", %"class.std::deque", i64, %"class.std::vector.21", %"class.std::__cxx11::basic_string", %"class.std::__cxx11::basic_string", i64, %"class.std::vector.23", %"class.__gnu_cxx::__normal_iterator", i64, i64, i64, %"class.std::deque.28", i32, i32, i8, i8, i8, i32, i32, ptr, i8, %"class.std::__cxx11::basic_string" }
%class.cmCTestGenericHandler.base = type <{ ptr, i8, i8, [6 x i8], i64, i32, [4 x i8], ptr, %"class.std::map", %"class.std::map", %"class.std::map.0", %"class.std::map.0", %"class.std::map", i32 }>
%"class.std::map.0" = type { %"class.std::_Rb_tree.1" }
%"class.std::_Rb_tree.1" = type { %"struct.std::_Rb_tree<std::__cxx11::basic_string<char>, std::pair<const std::__cxx11::basic_string<char>, std::vector<std::__cxx11::basic_string<char>>>, std::_Select1st<std::pair<const std::__cxx11::basic_string<char>, std::vector<std::__cxx11::basic_string<char>>>>, std::less<std::__cxx11::basic_string<char>>>::_Rb_tree_impl" }
%"struct.std::_Rb_tree<std::__cxx11::basic_string<char>, std::pair<const std::__cxx11::basic_string<char>, std::vector<std::__cxx11::basic_string<char>>>, std::_Select1st<std::pair<const std::__cxx11::basic_string<char>, std::vector<std::__cxx11::basic_string<char>>>>, std::less<std::__cxx11::basic_string<char>>>::_Rb_tree_impl" = type { %"struct.std::_Rb_tree_key_compare", %"struct.std::_Rb_tree_header" }
%"struct.std::_Rb_tree_key_compare" = type { %"struct.std::less" }
%"struct.std::less" = type { i8 }
%"struct.std::_Rb_tree_header" = type { %"struct.std::_Rb_tree_node_base", i64 }
%"struct.std::_Rb_tree_node_base" = type { i32, ptr, ptr, ptr }
%"class.std::map" = type { %"class.std::_Rb_tree" }
%"class.std::_Rb_tree" = type { %"struct.std::_Rb_tree<std::__cxx11::basic_string<char>, std::pair<const std::__cxx11::basic_string<char>, std::__cxx11::basic_string<char>>, std::_Select1st<std::pair<const std::__cxx11::basic_string<char>, std::__cxx11::basic_string<char>>>, std::less<std::__cxx11::basic_string<char>>>::_Rb_tree_impl" }
%"struct.std::_Rb_tree<std::__cxx11::basic_string<char>, std::pair<const std::__cxx11::basic_string<char>, std::__cxx11::basic_string<char>>, std::_Select1st<std::pair<const std::__cxx11::basic_string<char>, std::__cxx11::basic_string<char>>>, std::less<std::__cxx11::basic_string<char>>>::_Rb_tree_impl" = type { %"struct.std::_Rb_tree_key_compare", %"struct.std::_Rb_tree_header" }
%"class.std::chrono::time_point" = type { %"class.std::chrono::duration" }
%"class.std::chrono::duration" = type { i64 }
%"class.std::vector" = type { %"struct.std::_Vector_base" }
%"struct.std::_Vector_base" = type { %"struct.std::_Vector_base<std::__cxx11::basic_string<char>, std::allocator<std::__cxx11::basic_string<char>>>::_Vector_impl" }
%"struct.std::_Vector_base<std::__cxx11::basic_string<char>, std::allocator<std::__cxx11::basic_string<char>>>::_Vector_impl" = type { %"struct.std::_Vector_base<std::__cxx11::basic_string<char>, std::allocator<std::__cxx11::basic_string<char>>>::_Vector_impl_data" }
%"struct.std::_Vector_base<std::__cxx11::basic_string<char>, std::allocator<std::__cxx11::basic_string<char>>>::_Vector_impl_data" = type { ptr, ptr, ptr }
%"class.std::vector.11" = type { %"struct.std::_Vector_base.12" }
%"struct.std::_Vector_base.12" = type { %"struct.std::_Vector_base<cmCTestBuildHandler::cmCTestCompileErrorWarningRex, std::allocator<cmCTestBuildHandler::cmCTestCompileErrorWarningRex>>::_Vector_impl" }
%"struct.std::_Vector_base<cmCTestBuildHandler::cmCTestCompileErrorWarningRex, std::allocator<cmCTestBuildHandler::cmCTestCompileErrorWarningRex>>::_Vector_impl" = type { %"struct.std::_Vector_base<cmCTestBuildHandler::cmCTestCompileErrorWarningRex, std::allocator<cmCTestBuildHandler::cmCTestCompileErrorWarningRex>>::_Vector_impl_data" }
%"struct.std::_Vector_base<cmCTestBuildHandler::cmCTestCompileErrorWarningRex, std::allocator<cmCTestBuildHandler::cmCTestCompileErrorWarningRex>>::_Vector_impl_data" = type { ptr, ptr, ptr }
%"class.std::vector.16" = type { %"struct.std::_Vector_base.17" }
%"struct.std::_Vector_base.17" = type { %"struct.std::_Vector_base<cmsys::RegularExpression, std::allocator<cmsys::RegularExpression>>::_Vector_impl" }
%"struct.std::_Vector_base<cmsys::RegularExpression, std::allocator<cmsys::RegularExpression>>::_Vector_impl" = type { %"struct.std::_Vector_base<cmsys::RegularExpression, std::allocator<cmsys::RegularExpression>>::_Vector_impl_data" }
%"struct.std::_Vector_base<cmsys::RegularExpression, std::allocator<cmsys::RegularExpression>>::_Vector_impl_data" = type { ptr, ptr, ptr }
%"class.std::deque" = type { %"class.std::_Deque_base" }
%"class.std::_Deque_base" = type { %"struct.std::_Deque_base<char, std::allocator<char>>::_Deque_impl" }
%"struct.std::_Deque_base<char, std::allocator<char>>::_Deque_impl" = type { %"struct.std::_Deque_base<char, std::allocator<char>>::_Deque_impl_data" }
%"struct.std::_Deque_base<char, std::allocator<char>>::_Deque_impl_data" = type { ptr, i64, %"struct.std::_Deque_iterator", %"struct.std::_Deque_iterator" }
%"struct.std::_Deque_iterator" = type { ptr, ptr, ptr, ptr }
%"class.std::vector.21" = type { %"struct.std::_Vector_base.22" }
%"struct.std::_Vector_base.22" = type { %"struct.std::_Vector_base<char, std::allocator<char>>::_Vector_impl" }
%"struct.std::_Vector_base<char, std::allocator<char>>::_Vector_impl" = type { %"struct.std::_Vector_base<char, std::allocator<char>>::_Vector_impl_data" }
%"struct.std::_Vector_base<char, std::allocator<char>>::_Vector_impl_data" = type { ptr, ptr, ptr }
%"class.std::vector.23" = type { %"struct.std::_Vector_base.24" }
%"struct.std::_Vector_base.24" = type { %"struct.std::_Vector_base<cmCTestBuildHandler::cmCTestBuildErrorWarning, std::allocator<cmCTestBuildHandler::cmCTestBuildErrorWarning>>::_Vector_impl" }
%"struct.std::_Vector_base<cmCTestBuildHandler::cmCTestBuildErrorWarning, std::allocator<cmCTestBuildHandler::cmCTestBuildErrorWarning>>::_Vector_impl" = type { %"struct.std::_Vector_base<cmCTestBuildHandler::cmCTestBuildErrorWarning, std::allocator<cmCTestBuildHandler::cmCTestBuildErrorWarning>>::_Vector_impl_data" }
%"struct.std::_Vector_base<cmCTestBuildHandler::cmCTestBuildErrorWarning, std::allocator<cmCTestBuildHandler::cmCTestBuildErrorWarning>>::_Vector_impl_data" = type { ptr, ptr, ptr }
%"class.std::deque.28" = type { %"class.std::_Deque_base.29" }
%"class.std::_Deque_base.29" = type { %"struct.std::_Deque_base<std::__cxx11::basic_string<char>, std::allocator<std::__cxx11::basic_string<char>>>::_Deque_impl" }
%"struct.std::_Deque_base<std::__cxx11::basic_string<char>, std::allocator<std::__cxx11::basic_string<char>>>::_Deque_impl" = type { %"struct.std::_Deque_base<std::__cxx11::basic_string<char>, std::allocator<std::__cxx11::basic_string<char>>>::_Deque_impl_data" }
%"struct.std::_Deque_base<std::__cxx11::basic_string<char>, std::allocator<std::__cxx11::basic_string<char>>>::_Deque_impl_data" = type { ptr, i64, %"struct.std::_Deque_iterator.30", %"struct.std::_Deque_iterator.30" }
%"struct.std::_Deque_iterator.30" = type { ptr, ptr, ptr, ptr }
%"class.cmCTestBuildHandler::LaunchHelper" = type { ptr, ptr }

@.str.72 = private unnamed_addr constant [18 x i8] c"CTEST_LAUNCH_LOGS\00", align 1

; Function Attrs: mustprogress nounwind uwtable
define dso_local void @_ZN19cmCTestBuildHandler12LaunchHelperD2Ev(ptr noundef nonnull align 8 dereferenceable(16) %0) unnamed_addr #5 align 2 personality ptr @__gxx_personality_v0 {
  %2 = alloca ptr, align 8
  store ptr %0, ptr %2, align 8
  %3 = load ptr, ptr %2, align 8
  %4 = getelementptr inbounds %"class.cmCTestBuildHandler::LaunchHelper", ptr %3, i32 0, i32 0
  %5 = load ptr, ptr %4, align 8
  %6 = getelementptr inbounds %class.cmCTestBuildHandler, ptr %5, i32 0, i32 37
  %7 = load i8, ptr %6, align 8
  %8 = trunc i8 %7 to i1
  br i1 %8, label %9, label %12

9:                                                ; preds = %1
  %10 = invoke noundef zeroext i1 @_ZN13cmSystemTools8UnsetEnvEPKc(ptr noundef @.str.72)
          to label %11 unwind label %13

11:                                               ; preds = %9
  br label %12

12:                                               ; preds = %11, %1
  ret void

13:                                               ; preds = %9
  %14 = landingpad { ptr, i32 }
          catch ptr null
  %15 = extractvalue { ptr, i32 } %14, 0
  call void @__clang_call_terminate(ptr %15) #15
  unreachable
}