; Function Attrs: mustprogress nounwind uwtable
define dso_local void @_ZN19cmCTestBuildHandler12LaunchHelperD2Ev(ptr nocapture noundef nonnull readonly align 8 dereferenceable(16) %0) unnamed_addr #5 align 2 personality ptr @__gxx_personality_v0 {
  %2 = load ptr, ptr %0, align 8
  %3 = getelementptr inbounds i8, ptr %2, i64 1064
  %4 = load i8, ptr %3, align 8
  %5 = and i8 %4, 1
  %.not = icmp eq i8 %5, 0
  br i1 %.not, label %8, label %6

6:                                                ; preds = %1
  %7 = invoke noundef zeroext i1 @_ZN13cmSystemTools8UnsetEnvEPKc(ptr noundef nonnull @.str.72)
          to label %8 unwind label %9

8:                                                ; preds = %6, %1
  ret void

9:                                                ; preds = %6
  %10 = landingpad { ptr, i32 }
          catch ptr null
  %11 = extractvalue { ptr, i32 } %10, 0
  tail call void @__clang_call_terminate(ptr %11) #23
  unreachable
}